target datalayout = "e-m:e-p270:32:32-p271:32:32-p272:64:64-i64:64-i128:128-f80:128-n8:16:32:64-S128"
target triple = "x86_64-pc-linux-gnu"

%"struct.Luau::TypePackVar" = type { %"class.Luau::Variant.72", i8, ptr }
%"class.Luau::Variant.72" = type { i32, [4 x i8], [64 x i8] }

; Function Attrs: mustprogress nounwind uwtable
define linkonce_odr dso_local noundef ptr @_ZNK4Luau7VariantIJNS_9Unifiable5BoundIPKNS_11TypePackVarEEENS1_5ErrorIS5_EENS_12FreeTypePackENS_15GenericTypePackENS_8TypePackENS_16VariadicTypePackENS_15BlockedTypePackENS_28TypeFunctionInstanceTypePackEEE6get_ifISA_EEPKT_v(ptr noundef nonnull align 8 dereferenceable(72) %0) #4 comdat align 2 {
  %2 = alloca ptr, align 8
  %3 = alloca i32, align 4
  store ptr %0, ptr %2, align 8, !tbaa !181
  %4 = load ptr, ptr %2, align 8
  call void @llvm.lifetime.start.p0(i64 4, ptr %3) #14
  store i32 3, ptr %3, align 4, !tbaa !4
  %5 = getelementptr inbounds nuw %"class.Luau::Variant.72", ptr %4, i32 0, i32 0
  %6 = load i32, ptr %5, align 8, !tbaa !183
  %7 = icmp eq i32 3, %6
  br i1 %7, label %8, label %10

8:                                                ; preds = %1
  %9 = getelementptr inbounds nuw %"class.Luau::Variant.72", ptr %4, i32 0, i32 2
  br label %11

10:                                               ; preds = %1
  br label %11

11:                                               ; preds = %10, %8
  %12 = phi ptr [ %9, %8 ], [ null, %10 ]
  call void @llvm.lifetime.end.p0(i64 4, ptr %3) #14
  ret ptr %12
}

; Function Attrs: mustprogress uwtable
define linkonce_odr dso_local noundef ptr @_ZN4Luau6get_ifINS_15GenericTypePackEJNS_9Unifiable5BoundIPKNS_11TypePackVarEEENS2_5ErrorIS6_EENS_12FreeTypePackES1_NS_8TypePackENS_16VariadicTypePackENS_15BlockedTypePackENS_28TypeFunctionInstanceTypePackEEEEPKT_PKNS_7VariantIJDpT0_EEE(ptr noundef %0) #2 comdat {
  %2 = alloca ptr, align 8
  store ptr %0, ptr %2, align 8, !tbaa !181
  %3 = load ptr, ptr %2, align 8, !tbaa !181
  %4 = icmp ne ptr %3, null
  br i1 %4, label %5, label %8

5:                                                ; preds = %1
  %6 = load ptr, ptr %2, align 8, !tbaa !181
  %7 = call noundef ptr @_ZNK4Luau7VariantIJNS_9Unifiable5BoundIPKNS_11TypePackVarEEENS1_5ErrorIS5_EENS_12FreeTypePackENS_15GenericTypePackENS_8TypePackENS_16VariadicTypePackENS_15BlockedTypePackENS_28TypeFunctionInstanceTypePackEEE6get_ifISA_EEPKT_v(ptr noundef nonnull align 8 dereferenceable(72) %6)
  br label %9

8:                                                ; preds = %1
  br label %9

9:                                                ; preds = %8, %5
  %10 = phi ptr [ %7, %5 ], [ null, %8 ]
  ret ptr %10
}

; Function Attrs: mustprogress uwtable
define linkonce_odr dso_local noundef ptr @_ZN4Luau3getINS_15GenericTypePackEEEPKT_PKNS_11TypePackVarE(ptr noundef %0) #2 comdat {
  %2 = alloca ptr, align 8
  store ptr %0, ptr %2, align 8, !tbaa !87
  %3 = load ptr, ptr %2, align 8, !tbaa !87
  %4 = getelementptr inbounds nuw %"struct.Luau::TypePackVar", ptr %3, i32 0, i32 0
  %5 = call noundef ptr @_ZN4Luau6get_ifINS_15GenericTypePackEJNS_9Unifiable5BoundIPKNS_11TypePackVarEEENS2_5ErrorIS6_EENS_12FreeTypePackES1_NS_8TypePackENS_16VariadicTypePackENS_15BlockedTypePackENS_28TypeFunctionInstanceTypePackEEEEPKT_PKNS_7VariantIJDpT0_EEE(ptr noundef %4)
  ret ptr %5
}

; Function Attrs: mustprogress uwtable
define dso_local noundef zeroext i1 @_ZN4Luau17ApplyTypeFunction14ignoreChildrenEPKNS_11TypePackVarE(ptr noundef nonnull align 8 dereferenceable(592) %0, ptr noundef %1) unnamed_addr #2 align 2 {
  %3 = alloca i1, align 1
  %4 = alloca ptr, align 8
  %5 = alloca ptr, align 8
  store ptr %0, ptr %4, align 8, !tbaa !8
  store ptr %1, ptr %5, align 8, !tbaa !87
  %6 = load ptr, ptr %5, align 8, !tbaa !87
  %7 = call noundef ptr @_ZN4Luau3getINS_15GenericTypePackEEEPKT_PKNS_11TypePackVarE(ptr noundef %6)
  %8 = icmp ne ptr %7, null
  br i1 %8, label %9, label %10

9:                                                ; preds = %2
  store i1 true, ptr %3, align 1
  br label %11

10:                                               ; preds = %2
  store i1 false, ptr %3, align 1
  br label %11

11:                                               ; preds = %10, %9
  %12 = load i1, ptr %3, align 1
  ret i1 %12
}