; Function Attrs: mustprogress nofree norecurse nosync nounwind willreturn memory(argmem: read) uwtable
define dso_local noundef zeroext i1 @_ZN4Luau17ApplyTypeFunction14ignoreChildrenEPKNS_11TypePackVarE(ptr nonnull readnone align 8 captures(none) %0, ptr noundef readonly %1) unnamed_addr #4 align 2 {
  %.not.i.i = icmp eq ptr %1, null
  br i1 %.not.i.i, label %_ZN4Luau3getINS_15GenericTypePackEEEPKT_PKNS_11TypePackVarE.exit, label %3

3:                                                ; preds = %2
  %4 = load i32, ptr %1, align 8, !tbaa !96
  %5 = icmp eq i32 %4, 3
  br label %_ZN4Luau3getINS_15GenericTypePackEEEPKT_PKNS_11TypePackVarE.exit

_ZN4Luau3getINS_15GenericTypePackEEEPKT_PKNS_11TypePackVarE.exit: ; preds = %2, %3
  %.not = phi i1 [ %5, %3 ], [ false, %2 ]
  ret i1 %.not
}